target datalayout = "e-m:e-p270:32:32-p271:32:32-p272:64:64-i64:64-i128:128-f80:128-n8:16:32:64-S128"
target triple = "x86_64-unknown-linux-gnu"

%"class.absl::debian2::string_view" = type { ptr, i64 }
%"class.re2::Regexp::ParseState" = type { i32, %"class.absl::debian2::string_view", ptr, ptr, i32, i32 }
%"class.re2::Regexp" = type { i8, i8, i16, i16, i16, %union.anon, ptr, %union.anon.0 }
%union.anon = type { ptr }
%union.anon.0 = type { %struct.anon.1 }
%struct.anon.1 = type { i32, ptr }
%struct.anon.2 = type { i32, ptr }

; Function Attrs: mustprogress uwtable
define noundef zeroext i1 @_ZN3re26Regexp10ParseState17MaybeConcatStringEiNS0_10ParseFlagsE(ptr noundef nonnull align 8 dereferenceable(48) %this, i32 noundef %r, i32 noundef %flags) #1 align 2 {
entry:
  %retval = alloca i1, align 1
  %this.addr = alloca ptr, align 8
  %r.addr = alloca i32, align 4
  %flags.addr = alloca i32, align 4
  %re1 = alloca ptr, align 8
  %re2 = alloca ptr, align 8
  %rune = alloca i32, align 4
  %i = alloca i32, align 4
  store ptr %this, ptr %this.addr, align 8
  store i32 %r, ptr %r.addr, align 4
  store i32 %flags, ptr %flags.addr, align 4
  %this1 = load ptr, ptr %this.addr, align 8
  %stacktop_ = getelementptr inbounds %"class.re2::Regexp::ParseState", ptr %this1, i32 0, i32 3
  %0 = load ptr, ptr %stacktop_, align 8
  store ptr %0, ptr %re1, align 8
  %cmp = icmp eq ptr %0, null
  br i1 %cmp, label %if.then, label %lor.lhs.false

lor.lhs.false:                                    ; preds = %entry
  %1 = load ptr, ptr %re1, align 8
  %down_ = getelementptr inbounds %"class.re2::Regexp", ptr %1, i32 0, i32 6
  %2 = load ptr, ptr %down_, align 8
  store ptr %2, ptr %re2, align 8
  %cmp2 = icmp eq ptr %2, null
  br i1 %cmp2, label %if.then, label %if.end

if.then:                                          ; preds = %lor.lhs.false, %entry
  store i1 false, ptr %retval, align 1
  br label %return

if.end:                                           ; preds = %lor.lhs.false
  %3 = load ptr, ptr %re1, align 8
  %op_ = getelementptr inbounds %"class.re2::Regexp", ptr %3, i32 0, i32 0
  %4 = load i8, ptr %op_, align 8
  %conv = zext i8 %4 to i32
  %cmp3 = icmp ne i32 %conv, 3
  br i1 %cmp3, label %land.lhs.true, label %if.end8

land.lhs.true:                                    ; preds = %if.end
  %5 = load ptr, ptr %re1, align 8
  %op_4 = getelementptr inbounds %"class.re2::Regexp", ptr %5, i32 0, i32 0
  %6 = load i8, ptr %op_4, align 8
  %conv5 = zext i8 %6 to i32
  %cmp6 = icmp ne i32 %conv5, 4
  br i1 %cmp6, label %if.then7, label %if.end8

if.then7:                                         ; preds = %land.lhs.true
  store i1 false, ptr %retval, align 1
  br label %return

if.end8:                                          ; preds = %land.lhs.true, %if.end
  %7 = load ptr, ptr %re2, align 8
  %op_9 = getelementptr inbounds %"class.re2::Regexp", ptr %7, i32 0, i32 0
  %8 = load i8, ptr %op_9, align 8
  %conv10 = zext i8 %8 to i32
  %cmp11 = icmp ne i32 %conv10, 3
  br i1 %cmp11, label %land.lhs.true12, label %if.end17

land.lhs.true12:                                  ; preds = %if.end8
  %9 = load ptr, ptr %re2, align 8
  %op_13 = getelementptr inbounds %"class.re2::Regexp", ptr %9, i32 0, i32 0
  %10 = load i8, ptr %op_13, align 8
  %conv14 = zext i8 %10 to i32
  %cmp15 = icmp ne i32 %conv14, 4
  br i1 %cmp15, label %if.then16, label %if.end17

if.then16:                                        ; preds = %land.lhs.true12
  store i1 false, ptr %retval, align 1
  br label %return

if.end17:                                         ; preds = %land.lhs.true12, %if.end8
  %11 = load ptr, ptr %re1, align 8
  %parse_flags_ = getelementptr inbounds %"class.re2::Regexp", ptr %11, i32 0, i32 2
  %12 = load i16, ptr %parse_flags_, align 2
  %conv18 = zext i16 %12 to i32
  %and = and i32 %conv18, 1
  %13 = load ptr, ptr %re2, align 8
  %parse_flags_19 = getelementptr inbounds %"class.re2::Regexp", ptr %13, i32 0, i32 2
  %14 = load i16, ptr %parse_flags_19, align 2
  %conv20 = zext i16 %14 to i32
  %and21 = and i32 %conv20, 1
  %cmp22 = icmp ne i32 %and, %and21
  br i1 %cmp22, label %if.then23, label %if.end24

if.then23:                                        ; preds = %if.end17
  store i1 false, ptr %retval, align 1
  br label %return

if.end24:                                         ; preds = %if.end17
  %15 = load ptr, ptr %re2, align 8
  %op_25 = getelementptr inbounds %"class.re2::Regexp", ptr %15, i32 0, i32 0
  %16 = load i8, ptr %op_25, align 8
  %conv26 = zext i8 %16 to i32
  %cmp27 = icmp eq i32 %conv26, 3
  br i1 %cmp27, label %if.then28, label %if.end30

if.then28:                                        ; preds = %if.end24
  %17 = load ptr, ptr %re2, align 8
  %18 = getelementptr inbounds %"class.re2::Regexp", ptr %17, i32 0, i32 7
  %19 = load i32, ptr %18, align 8
  store i32 %19, ptr %rune, align 4
  %20 = load ptr, ptr %re2, align 8
  %op_29 = getelementptr inbounds %"class.re2::Regexp", ptr %20, i32 0, i32 0
  store i8 4, ptr %op_29, align 8
  %21 = load ptr, ptr %re2, align 8
  %22 = getelementptr inbounds %"class.re2::Regexp", ptr %21, i32 0, i32 7
  %nrunes_ = getelementptr inbounds %struct.anon.2, ptr %22, i32 0, i32 0
  store i32 0, ptr %nrunes_, align 8
  %23 = load ptr, ptr %re2, align 8
  %24 = getelementptr inbounds %"class.re2::Regexp", ptr %23, i32 0, i32 7
  %runes_ = getelementptr inbounds %struct.anon.2, ptr %24, i32 0, i32 1
  store ptr null, ptr %runes_, align 8
  %25 = load ptr, ptr %re2, align 8
  %26 = load i32, ptr %rune, align 4
  call void @_ZN3re26Regexp15AddRuneToStringEi(ptr noundef nonnull align 8 dereferenceable(40) %25, i32 noundef %26)
  br label %if.end30

if.end30:                                         ; preds = %if.then28, %if.end24
  %27 = load ptr, ptr %re1, align 8
  %op_31 = getelementptr inbounds %"class.re2::Regexp", ptr %27, i32 0, i32 0
  %28 = load i8, ptr %op_31, align 8
  %conv32 = zext i8 %28 to i32
  %cmp33 = icmp eq i32 %conv32, 3
  br i1 %cmp33, label %if.then34, label %if.else

if.then34:                                        ; preds = %if.end30
  %29 = load ptr, ptr %re2, align 8
  %30 = load ptr, ptr %re1, align 8
  %31 = getelementptr inbounds %"class.re2::Regexp", ptr %30, i32 0, i32 7
  %32 = load i32, ptr %31, align 8
  call void @_ZN3re26Regexp15AddRuneToStringEi(ptr noundef nonnull align 8 dereferenceable(40) %29, i32 noundef %32)
  br label %if.end41

if.else:                                          ; preds = %if.end30
  store i32 0, ptr %i, align 4
  br label %for.cond

for.cond:                                         ; preds = %for.inc, %if.else
  %33 = load i32, ptr %i, align 4
  %34 = load ptr, ptr %re1, align 8
  %35 = getelementptr inbounds %"class.re2::Regexp", ptr %34, i32 0, i32 7
  %nrunes_35 = getelementptr inbounds %struct.anon.2, ptr %35, i32 0, i32 0
  %36 = load i32, ptr %nrunes_35, align 8
  %cmp36 = icmp slt i32 %33, %36
  br i1 %cmp36, label %for.body, label %for.end

for.body:                                         ; preds = %for.cond
  %37 = load ptr, ptr %re2, align 8
  %38 = load ptr, ptr %re1, align 8
  %39 = getelementptr inbounds %"class.re2::Regexp", ptr %38, i32 0, i32 7
  %runes_37 = getelementptr inbounds %struct.anon.2, ptr %39, i32 0, i32 1
  %40 = load ptr, ptr %runes_37, align 8
  %41 = load i32, ptr %i, align 4
  %idxprom = sext i32 %41 to i64
  %arrayidx = getelementptr inbounds i32, ptr %40, i64 %idxprom
  %42 = load i32, ptr %arrayidx, align 4
  call void @_ZN3re26Regexp15AddRuneToStringEi(ptr noundef nonnull align 8 dereferenceable(40) %37, i32 noundef %42)
  br label %for.inc

for.inc:                                          ; preds = %for.body
  %43 = load i32, ptr %i, align 4
  %inc = add nsw i32 %43, 1
  store i32 %inc, ptr %i, align 4
  br label %for.cond, !llvm.loop !6

for.end:                                          ; preds = %for.cond
  %44 = load ptr, ptr %re1, align 8
  %45 = getelementptr inbounds %"class.re2::Regexp", ptr %44, i32 0, i32 7
  %nrunes_38 = getelementptr inbounds %struct.anon.2, ptr %45, i32 0, i32 0
  store i32 0, ptr %nrunes_38, align 8
  %46 = load ptr, ptr %re1, align 8
  %47 = getelementptr inbounds %"class.re2::Regexp", ptr %46, i32 0, i32 7
  %runes_39 = getelementptr inbounds %struct.anon.2, ptr %47, i32 0, i32 1
  %48 = load ptr, ptr %runes_39, align 8
  %isnull = icmp eq ptr %48, null
  br i1 %isnull, label %delete.end, label %delete.notnull

delete.notnull:                                   ; preds = %for.end
  call void @_ZdaPv(ptr noundef %48) #13
  br label %delete.end

delete.end:                                       ; preds = %delete.notnull, %for.end
  %49 = load ptr, ptr %re1, align 8
  %50 = getelementptr inbounds %"class.re2::Regexp", ptr %49, i32 0, i32 7
  %runes_40 = getelementptr inbounds %struct.anon.2, ptr %50, i32 0, i32 1
  store ptr null, ptr %runes_40, align 8
  br label %if.end41

if.end41:                                         ; preds = %delete.end, %if.then34
  %51 = load i32, ptr %r.addr, align 4
  %cmp42 = icmp sge i32 %51, 0
  br i1 %cmp42, label %if.then43, label %if.end47

if.then43:                                        ; preds = %if.end41
  %52 = load ptr, ptr %re1, align 8
  %op_44 = getelementptr inbounds %"class.re2::Regexp", ptr %52, i32 0, i32 0
  store i8 3, ptr %op_44, align 8
  %53 = load i32, ptr %r.addr, align 4
  %54 = load ptr, ptr %re1, align 8
  %55 = getelementptr inbounds %"class.re2::Regexp", ptr %54, i32 0, i32 7
  store i32 %53, ptr %55, align 8
  %56 = load i32, ptr %flags.addr, align 4
  %conv45 = trunc i32 %56 to i16
  %57 = load ptr, ptr %re1, align 8
  %parse_flags_46 = getelementptr inbounds %"class.re2::Regexp", ptr %57, i32 0, i32 2
  store i16 %conv45, ptr %parse_flags_46, align 2
  store i1 true, ptr %retval, align 1
  br label %return

if.end47:                                         ; preds = %if.end41
  %58 = load ptr, ptr %re2, align 8
  %stacktop_48 = getelementptr inbounds %"class.re2::Regexp::ParseState", ptr %this1, i32 0, i32 3
  store ptr %58, ptr %stacktop_48, align 8
  %59 = load ptr, ptr %re1, align 8
  call void @_ZN3re26Regexp6DecrefEv(ptr noundef nonnull align 8 dereferenceable(40) %59)
  store i1 false, ptr %retval, align 1
  br label %return

return:                                           ; preds = %if.end47, %if.then43, %if.then23, %if.then16, %if.then7, %if.then
  %60 = load i1, ptr %retval, align 1
  ret i1 %60
}