; Function Attrs: mustprogress uwtable
define noundef zeroext i1 @_ZN3re26Regexp10ParseState17MaybeConcatStringEiNS0_10ParseFlagsE(ptr nocapture noundef nonnull align 8 dereferenceable(48) %this, i32 noundef %r, i32 noundef %flags) local_unnamed_addr #8 align 2 {
entry:
  %stacktop_ = getelementptr inbounds i8, ptr %this, i64 32
  %0 = load ptr, ptr %stacktop_, align 8
  %cmp = icmp eq ptr %0, null
  br i1 %cmp, label %return, label %lor.lhs.false

lor.lhs.false:                                    ; preds = %entry
  %down_ = getelementptr inbounds i8, ptr %0, i64 16
  %1 = load ptr, ptr %down_, align 8
  %cmp2 = icmp eq ptr %1, null
  br i1 %cmp2, label %return, label %if.end

if.end:                                           ; preds = %lor.lhs.false
  %2 = load i8, ptr %0, align 8
  %.off = add i8 %2, -3
  %switch = icmp ult i8 %.off, 2
  br i1 %switch, label %if.end8, label %return

if.end8:                                          ; preds = %if.end
  %3 = load i8, ptr %1, align 8
  %.off31 = add i8 %3, -3
  %switch32 = icmp ult i8 %.off31, 2
  br i1 %switch32, label %if.end17, label %return

if.end17:                                         ; preds = %if.end8
  %parse_flags_ = getelementptr inbounds i8, ptr %0, i64 2
  %4 = load i16, ptr %parse_flags_, align 2
  %parse_flags_19 = getelementptr inbounds i8, ptr %1, i64 2
  %5 = load i16, ptr %parse_flags_19, align 2
  %6 = xor i16 %5, %4
  %7 = and i16 %6, 1
  %cmp22.not = icmp eq i16 %7, 0
  br i1 %cmp22.not, label %if.end24, label %return

if.end24:                                         ; preds = %if.end17
  %cmp27 = icmp eq i8 %3, 3
  br i1 %cmp27, label %if.then28, label %if.end30

if.then28:                                        ; preds = %if.end24
  %8 = getelementptr inbounds i8, ptr %1, i64 24
  %9 = load i32, ptr %8, align 8
  store i8 4, ptr %1, align 8
  store i32 0, ptr %8, align 8
  %runes_ = getelementptr inbounds i8, ptr %1, i64 32
  store ptr null, ptr %runes_, align 8
  tail call void @_ZN3re26Regexp15AddRuneToStringEi(ptr noundef nonnull align 8 dereferenceable(40) %1, i32 noundef %9)
  %.pre = load i8, ptr %0, align 8
  br label %if.end30

if.end30:                                         ; preds = %if.then28, %if.end24
  %10 = phi i8 [ %.pre, %if.then28 ], [ %2, %if.end24 ]
  %cmp33 = icmp eq i8 %10, 3
  %11 = getelementptr inbounds i8, ptr %0, i64 24
  %12 = load i32, ptr %11, align 8
  br i1 %cmp33, label %if.then34, label %for.cond.preheader

for.cond.preheader:                               ; preds = %if.end30
  %cmp3633 = icmp sgt i32 %12, 0
  br i1 %cmp3633, label %for.body.lr.ph, label %for.end

for.body.lr.ph:                                   ; preds = %for.cond.preheader
  %runes_37 = getelementptr inbounds i8, ptr %0, i64 32
  br label %for.body

if.then34:                                        ; preds = %if.end30
  tail call void @_ZN3re26Regexp15AddRuneToStringEi(ptr noundef nonnull align 8 dereferenceable(40) %1, i32 noundef %12)
  br label %if.end41

for.body:                                         ; preds = %for.body.lr.ph, %for.body
  %indvars.iv = phi i64 [ 0, %for.body.lr.ph ], [ %indvars.iv.next, %for.body ]
  %13 = load ptr, ptr %runes_37, align 8
  %arrayidx = getelementptr inbounds i32, ptr %13, i64 %indvars.iv
  %14 = load i32, ptr %arrayidx, align 4
  tail call void @_ZN3re26Regexp15AddRuneToStringEi(ptr noundef nonnull align 8 dereferenceable(40) %1, i32 noundef %14)
  %indvars.iv.next = add nuw nsw i64 %indvars.iv, 1
  %15 = load i32, ptr %11, align 8
  %16 = sext i32 %15 to i64
  %cmp36 = icmp slt i64 %indvars.iv.next, %16
  br i1 %cmp36, label %for.body, label %for.end, !llvm.loop !6

for.end:                                          ; preds = %for.body, %for.cond.preheader
  store i32 0, ptr %11, align 8
  %runes_39 = getelementptr inbounds i8, ptr %0, i64 32
  %17 = load ptr, ptr %runes_39, align 8
  %isnull = icmp eq ptr %17, null
  br i1 %isnull, label %delete.end, label %delete.notnull

delete.notnull:                                   ; preds = %for.end
  tail call void @_ZdaPv(ptr noundef nonnull %17) #26
  br label %delete.end

delete.end:                                       ; preds = %delete.notnull, %for.end
  store ptr null, ptr %runes_39, align 8
  br label %if.end41

if.end41:                                         ; preds = %delete.end, %if.then34
  %cmp42 = icmp sgt i32 %r, -1
  br i1 %cmp42, label %if.then43, label %if.end47

if.then43:                                        ; preds = %if.end41
  store i8 3, ptr %0, align 8
  %18 = getelementptr inbounds i8, ptr %0, i64 24
  store i32 %r, ptr %18, align 8
  %conv45 = trunc i32 %flags to i16
  store i16 %conv45, ptr %parse_flags_, align 2
  br label %return

if.end47:                                         ; preds = %if.end41
  store ptr %1, ptr %stacktop_, align 8
  tail call void @_ZN3re26Regexp6DecrefEv(ptr noundef nonnull align 8 dereferenceable(40) %0)
  br label %return

return:                                           ; preds = %if.end8, %if.end, %if.end17, %entry, %lor.lhs.false, %if.end47, %if.then43
  %retval.0 = phi i1 [ true, %if.then43 ], [ false, %if.end47 ], [ false, %lor.lhs.false ], [ false, %entry ], [ false, %if.end ], [ false, %if.end8 ], [ false, %if.end17 ]
  ret i1 %retval.0
}